; Function Attrs: nounwind uwtable
define range(i32 0, 2) i32 @Abc_NtkCheckRead(ptr noundef %0) local_unnamed_addr #0 {
  %2 = tail call i32 @Abc_FrameIsFlagEnabled(ptr noundef nonnull @.str.1) #11
  %.not = icmp eq i32 %2, 0
  br i1 %.not, label %5, label %3

3:                                                ; preds = %1
  %4 = tail call i32 @Abc_NtkDoCheck(ptr noundef %0)
  br label %5

5:                                                ; preds = %3, %1
  %6 = phi i32 [ 1, %1 ], [ %4, %3 ]
  ret i32 %6
}